; Function Attrs: cold nounwind optsize uwtable
define internal noundef i32 @init(ptr noundef readonly captures(none) %0) #0 {
  %2 = load ptr, ptr %0, align 8, !tbaa !4
  %3 = getelementptr inbounds nuw i8, ptr %2, i64 3264
  store i64 -9223372036854775808, ptr %3, align 8, !tbaa !12
  %4 = getelementptr inbounds nuw i8, ptr %2, i64 3272
  store i32 2147483647, ptr %4, align 8, !tbaa !45
  %5 = getelementptr inbounds nuw i8, ptr %2, i64 2376
  tail call void @ff_h264dsp_init(ptr noundef nonnull %5, i32 noundef 8, i32 noundef 1) #10
  ret i32 0
}